target datalayout = "e-m:e-p270:32:32-p271:32:32-p272:64:64-i64:64-i128:128-f80:128-n8:16:32:64-S128"
target triple = "x86_64-pc-linux-gnu"

%"class.icu_77::Edits" = type <{ ptr, i32, i32, i32, i32, i32, [100 x i16], [4 x i8] }>

; Function Attrs: mustprogress nounwind uwtable
define void @_ZN6icu_775Edits12releaseArrayEv(ptr noundef nonnull align 8 dereferenceable(232) %0) #0 align 2 personality ptr @__gxx_personality_v0 {
  %2 = alloca ptr, align 8
  store ptr %0, ptr %2, align 8, !tbaa !23
  %3 = load ptr, ptr %2, align 8
  %4 = getelementptr inbounds nuw %"class.icu_77::Edits", ptr %3, i32 0, i32 0
  %5 = load ptr, ptr %4, align 8, !tbaa !25
  %6 = getelementptr inbounds nuw %"class.icu_77::Edits", ptr %3, i32 0, i32 6
  %7 = getelementptr inbounds [100 x i16], ptr %6, i64 0, i64 0
  %8 = icmp ne ptr %5, %7
  br i1 %8, label %9, label %13

9:                                                ; preds = %1
  %10 = getelementptr inbounds nuw %"class.icu_77::Edits", ptr %3, i32 0, i32 0
  %11 = load ptr, ptr %10, align 8, !tbaa !25
  invoke void @uprv_free_77(ptr noundef %11)
          to label %12 unwind label %14

12:                                               ; preds = %9
  br label %13

13:                                               ; preds = %12, %1
  ret void

14:                                               ; preds = %9
  %15 = landingpad { ptr, i32 }
          catch ptr null
  %16 = extractvalue { ptr, i32 } %15, 0
  call void @__clang_call_terminate(ptr %16) #11
  unreachable
}

; Function Attrs: inlinehint mustprogress nounwind uwtable
define internal noundef signext i8 @_ZL9U_FAILURE10UErrorCode(i32 noundef %0) #2 {
  %2 = alloca i32, align 4
  store i32 %0, ptr %2, align 4, !tbaa !15
  %3 = load i32, ptr %2, align 4, !tbaa !15
  %4 = icmp sgt i32 %3, 0
  %5 = zext i1 %4 to i8
  ret i8 %5
}

; Function Attrs: mustprogress uwtable
define noundef nonnull align 8 dereferenceable(232) ptr @_ZN6icu_775Edits9copyArrayERKS0_(ptr noundef nonnull align 8 dereferenceable(232) %0, ptr noundef nonnull align 8 dereferenceable(232) %1) #1 align 2 {
  %3 = alloca ptr, align 8
  %4 = alloca ptr, align 8
  %5 = alloca ptr, align 8
  %6 = alloca ptr, align 8
  %7 = alloca i32, align 4
  store ptr %0, ptr %4, align 8, !tbaa !23
  store ptr %1, ptr %5, align 8, !tbaa !23
  %8 = load ptr, ptr %4, align 8
  %9 = getelementptr inbounds nuw %"class.icu_77::Edits", ptr %8, i32 0, i32 5
  %10 = load i32, ptr %9, align 8, !tbaa !28
  %11 = call noundef signext i8 @_ZL9U_FAILURE10UErrorCode(i32 noundef %10)
  %12 = icmp ne i8 %11, 0
  br i1 %12, label %13, label %17

13:                                               ; preds = %2
  %14 = getelementptr inbounds nuw %"class.icu_77::Edits", ptr %8, i32 0, i32 4
  store i32 0, ptr %14, align 4, !tbaa !29
  %15 = getelementptr inbounds nuw %"class.icu_77::Edits", ptr %8, i32 0, i32 3
  store i32 0, ptr %15, align 8, !tbaa !30
  %16 = getelementptr inbounds nuw %"class.icu_77::Edits", ptr %8, i32 0, i32 2
  store i32 0, ptr %16, align 4, !tbaa !31
  store ptr %8, ptr %3, align 8
  br label %62

17:                                               ; preds = %2
  %18 = getelementptr inbounds nuw %"class.icu_77::Edits", ptr %8, i32 0, i32 2
  %19 = load i32, ptr %18, align 4, !tbaa !31
  %20 = getelementptr inbounds nuw %"class.icu_77::Edits", ptr %8, i32 0, i32 1
  %21 = load i32, ptr %20, align 8, !tbaa !32
  %22 = icmp sgt i32 %19, %21
  br i1 %22, label %23, label %45

23:                                               ; preds = %17
  call void @llvm.lifetime.start.p0(i64 8, ptr %6) #9
  %24 = getelementptr inbounds nuw %"class.icu_77::Edits", ptr %8, i32 0, i32 2
  %25 = load i32, ptr %24, align 4, !tbaa !31
  %26 = sext i32 %25 to i64
  %27 = mul i64 %26, 2
  %28 = call noalias ptr @uprv_malloc_77(i64 noundef %27) #10
  store ptr %28, ptr %6, align 8, !tbaa !33
  %29 = load ptr, ptr %6, align 8, !tbaa !33
  %30 = icmp eq ptr %29, null
  br i1 %30, label %31, label %36

31:                                               ; preds = %23
  %32 = getelementptr inbounds nuw %"class.icu_77::Edits", ptr %8, i32 0, i32 4
  store i32 0, ptr %32, align 4, !tbaa !29
  %33 = getelementptr inbounds nuw %"class.icu_77::Edits", ptr %8, i32 0, i32 3
  store i32 0, ptr %33, align 8, !tbaa !30
  %34 = getelementptr inbounds nuw %"class.icu_77::Edits", ptr %8, i32 0, i32 2
  store i32 0, ptr %34, align 4, !tbaa !31
  %35 = getelementptr inbounds nuw %"class.icu_77::Edits", ptr %8, i32 0, i32 5
  store i32 7, ptr %35, align 8, !tbaa !28
  store ptr %8, ptr %3, align 8
  store i32 1, ptr %7, align 4
  br label %42

36:                                               ; preds = %23
  call void @_ZN6icu_775Edits12releaseArrayEv(ptr noundef nonnull align 8 dereferenceable(232) %8) #9
  %37 = load ptr, ptr %6, align 8, !tbaa !33
  %38 = getelementptr inbounds nuw %"class.icu_77::Edits", ptr %8, i32 0, i32 0
  store ptr %37, ptr %38, align 8, !tbaa !25
  %39 = getelementptr inbounds nuw %"class.icu_77::Edits", ptr %8, i32 0, i32 2
  %40 = load i32, ptr %39, align 4, !tbaa !31
  %41 = getelementptr inbounds nuw %"class.icu_77::Edits", ptr %8, i32 0, i32 1
  store i32 %40, ptr %41, align 8, !tbaa !32
  store i32 0, ptr %7, align 4
  br label %42

42:                                               ; preds = %36, %31
  call void @llvm.lifetime.end.p0(i64 8, ptr %6) #9
  %43 = load i32, ptr %7, align 4
  switch i32 %43, label %64 [
    i32 0, label %44
    i32 1, label %62
  ]

44:                                               ; preds = %42
  br label %45

45:                                               ; preds = %44, %17
  %46 = getelementptr inbounds nuw %"class.icu_77::Edits", ptr %8, i32 0, i32 2
  %47 = load i32, ptr %46, align 4, !tbaa !31
  %48 = icmp sgt i32 %47, 0
  br i1 %48, label %49, label %61

49:                                               ; preds = %45
  br label %50

50:                                               ; preds = %49
  %51 = getelementptr inbounds nuw %"class.icu_77::Edits", ptr %8, i32 0, i32 0
  %52 = load ptr, ptr %51, align 8, !tbaa !25
  %53 = load ptr, ptr %5, align 8, !tbaa !23
  %54 = getelementptr inbounds nuw %"class.icu_77::Edits", ptr %53, i32 0, i32 0
  %55 = load ptr, ptr %54, align 8, !tbaa !25
  %56 = getelementptr inbounds nuw %"class.icu_77::Edits", ptr %8, i32 0, i32 2
  %57 = load i32, ptr %56, align 4, !tbaa !31
  %58 = sext i32 %57 to i64
  %59 = mul i64 %58, 2
  call void @llvm.memcpy.p0.p0.i64(ptr align 2 %52, ptr align 2 %55, i64 %59, i1 false)
  br label %60

60:                                               ; preds = %50
  br label %61

61:                                               ; preds = %60, %45
  store ptr %8, ptr %3, align 8
  br label %62

62:                                               ; preds = %61, %42, %13
  %63 = load ptr, ptr %3, align 8
  ret ptr %63

64:                                               ; preds = %42
  unreachable
}