; Function Attrs: mustprogress uwtable
define noundef nonnull align 8 dereferenceable(232) ptr @_ZN6icu_775Edits9copyArrayERKS0_(ptr noundef nonnull returned align 8 dereferenceable(232) %0, ptr noundef nonnull readonly align 8 captures(none) dereferenceable(232) %1) local_unnamed_addr #1 align 2 personality ptr @__gxx_personality_v0 {
  %3 = getelementptr inbounds nuw i8, ptr %0, i64 24
  %4 = load i32, ptr %3, align 8, !tbaa !18
  %5 = icmp slt i32 %4, 1
  br i1 %5, label %10, label %6

6:                                                ; preds = %2
  %7 = getelementptr inbounds nuw i8, ptr %0, i64 20
  store i32 0, ptr %7, align 4, !tbaa !19
  %8 = getelementptr inbounds nuw i8, ptr %0, i64 16
  store i32 0, ptr %8, align 8, !tbaa !20
  %9 = getelementptr inbounds nuw i8, ptr %0, i64 12
  store i32 0, ptr %9, align 4, !tbaa !21
  br label %40

10:                                               ; preds = %2
  %11 = getelementptr inbounds nuw i8, ptr %0, i64 12
  %12 = load i32, ptr %11, align 4, !tbaa !21
  %13 = getelementptr inbounds nuw i8, ptr %0, i64 8
  %14 = load i32, ptr %13, align 8, !tbaa !22
  %15 = icmp sgt i32 %12, %14
  br i1 %15, label %16, label %32

16:                                               ; preds = %10
  %17 = sext i32 %12 to i64
  %18 = shl nsw i64 %17, 1
  %19 = tail call noalias ptr @uprv_malloc_77(i64 noundef %18) #17
  %20 = icmp eq ptr %19, null
  br i1 %20, label %29, label %21

21:                                               ; preds = %16
  %22 = load ptr, ptr %0, align 8, !tbaa !15
  %23 = getelementptr inbounds nuw i8, ptr %0, i64 28
  %.not.i = icmp eq ptr %22, %23
  br i1 %.not.i, label %.thread, label %24

24:                                               ; preds = %21
  invoke void @uprv_free_77(ptr noundef %22)
          to label %.thread unwind label %25

25:                                               ; preds = %24
  %26 = landingpad { ptr, i32 }
          catch ptr null
  %27 = extractvalue { ptr, i32 } %26, 0
  tail call void @__clang_call_terminate(ptr %27) #18
  unreachable

.thread:                                          ; preds = %24, %21
  store ptr %19, ptr %0, align 8, !tbaa !15
  %28 = load i32, ptr %11, align 4, !tbaa !21
  store i32 %28, ptr %13, align 8, !tbaa !22
  br label %32

29:                                               ; preds = %16
  %30 = getelementptr inbounds nuw i8, ptr %0, i64 20
  store i32 0, ptr %30, align 4, !tbaa !19
  %31 = getelementptr inbounds nuw i8, ptr %0, i64 16
  store i32 0, ptr %31, align 8, !tbaa !20
  store i32 0, ptr %11, align 4, !tbaa !21
  store i32 7, ptr %3, align 8, !tbaa !18
  br label %40

32:                                               ; preds = %.thread, %10
  %33 = phi i32 [ %28, %.thread ], [ %12, %10 ]
  %34 = icmp sgt i32 %33, 0
  br i1 %34, label %35, label %40

35:                                               ; preds = %32
  %36 = load ptr, ptr %0, align 8, !tbaa !15
  %37 = load ptr, ptr %1, align 8, !tbaa !15
  %38 = shl nuw i32 %33, 1
  %39 = zext i32 %38 to i64
  tail call void @llvm.memcpy.p0.p0.i64(ptr align 2 %36, ptr align 2 %37, i64 %39, i1 false)
  br label %40

40:                                               ; preds = %29, %32, %35, %6
  ret ptr %0
}